target datalayout = "e-m:e-p270:32:32-p271:32:32-p272:64:64-i64:64-i128:128-f80:128-n8:16:32:64-S128"
target triple = "x86_64-pc-linux-gnu"

%struct.darktable_t = type { %struct.dt_codepath_t, i32, i32, ptr, ptr, ptr, ptr, ptr, ptr, ptr, ptr, ptr, ptr, ptr, ptr, ptr, ptr, ptr, ptr, ptr, ptr, ptr, ptr, ptr, ptr, ptr, ptr, ptr, ptr, ptr, [64 x %struct.dt_pthread_mutex_t], %struct.dt_pthread_mutex_t, %struct.dt_pthread_mutex_t, %struct.dt_pthread_mutex_t, %struct.dt_pthread_mutex_t, %struct.dt_pthread_mutex_t, ptr, ptr, ptr, ptr, ptr, ptr, ptr, ptr, ptr, ptr, ptr, ptr, %struct.dt_lua_state_t, ptr, double, ptr, i32, [46 x i32], i32, ptr, ptr, %struct.dt_sys_resources_t, %struct.dt_backthumb_t, %struct.dt_gimp_t }
%struct.dt_codepath_t = type { i8, [3 x i8] }
%struct.dt_pthread_mutex_t = type { %union.pthread_mutex_t }
%union.pthread_mutex_t = type { %struct.__pthread_mutex_s }
%struct.__pthread_mutex_s = type { i32, i32, i32, i32, i32, i16, i16, %struct.__pthread_internal_list }
%struct.__pthread_internal_list = type { ptr, ptr }
%struct.dt_lua_state_t = type { i32 }
%struct.dt_sys_resources_t = type { i64, i64, ptr, ptr, i32, i32, i32 }
%struct.dt_backthumb_t = type { double, double, i32, i32, i32, i32 }
%struct.dt_gimp_t = type { i32, ptr, ptr, i32, i32 }
%struct._cairo_rectangle_int = type { i32, i32, i32, i32 }

@darktable = external local_unnamed_addr global %struct.darktable_t, align 8

; Function Attrs: inlinehint mustprogress nofree norecurse nosync nounwind willreturn memory(argmem: readwrite) uwtable
define internal fastcc void @dt_XYZ_to_sRGB(ptr nocapture noundef readonly %0, ptr nocapture noundef writeonly %1) unnamed_addr #19 {
  %3 = getelementptr inbounds i8, ptr %0, i64 8
  %4 = load float, ptr %3, align 4, !tbaa !12
  %5 = fmul reassoc nsz arcp contract afn float %4, 0xBFDF663AC0000000
  %6 = load <2 x float>, ptr %0, align 4, !tbaa !12
  %7 = extractelement <2 x float> %6, i64 0
  %8 = fmul reassoc nsz arcp contract afn float %7, 0x4009122320000000
  %9 = extractelement <2 x float> %6, i64 1
  %10 = fmul reassoc nsz arcp contract afn float %9, 0xBFF9DEAFA0000000
  %11 = fadd reassoc nsz arcp contract afn float %10, %8
  %12 = fadd reassoc nsz arcp contract afn float %11, %5
  %13 = fmul reassoc nsz arcp contract afn <2 x float> %6, <float 0x3FB26B01E0000000, float 0x3FFEA88400000000>
  %14 = shufflevector <2 x float> %13, <2 x float> poison, <2 x i32> <i32 1, i32 0>
  %15 = fmul reassoc nsz arcp contract afn <2 x float> %6, <float 0xBFEF521220000000, float 0xBFCD4F9720000000>
  %16 = fadd reassoc nsz arcp contract afn <2 x float> %15, %14
  %17 = insertelement <2 x float> poison, float %4, i64 0
  %18 = shufflevector <2 x float> %17, <2 x float> poison, <2 x i32> zeroinitializer
  %19 = fmul reassoc nsz arcp contract afn <2 x float> %18, <float 0x3FA120E200000000, float 0x3FF67BDFC0000000>
  %20 = fadd reassoc nsz arcp contract afn <2 x float> %16, %19
  %21 = fadd reassoc nsz arcp contract afn float %9, %7
  %22 = fadd reassoc nsz arcp contract afn float %21, %4
  %23 = fmul reassoc nsz arcp contract afn float %22, 0.000000e+00
  %24 = shufflevector <2 x float> %20, <2 x float> poison, <4 x i32> <i32 poison, i32 0, i32 1, i32 poison>
  %25 = insertelement <4 x float> %24, float %12, i64 0
  %26 = insertelement <4 x float> %25, float %23, i64 3
  %27 = bitcast <4 x float> %26 to <4 x i32>
  %28 = and <4 x i32> %27, <i32 8388607, i32 8388607, i32 8388607, i32 8388607>
  %29 = or disjoint <4 x i32> %28, <i32 1065353216, i32 1065353216, i32 1065353216, i32 1065353216>
  %30 = bitcast <4 x i32> %29 to <4 x float>
  %31 = lshr <4 x i32> %27, <i32 23, i32 23, i32 23, i32 23>
  %32 = and <4 x i32> %31, <i32 255, i32 255, i32 255, i32 255>
  %33 = add nsw <4 x i32> %32, <i32 -127, i32 -127, i32 -127, i32 -127>
  %34 = sitofp <4 x i32> %33 to <4 x float>
  %35 = fmul reassoc nsz arcp contract afn <4 x float> %30, <float 0x3FAE8AA5E0000000, float 0x3FAE8AA5E0000000, float 0x3FAE8AA5E0000000, float 0x3FAE8AA5E0000000>
  %36 = fadd reassoc nsz arcp contract afn <4 x float> %35, <float 0xBFDDCE72E0000000, float 0xBFDDCE72E0000000, float 0xBFDDCE72E0000000, float 0xBFDDCE72E0000000>
  %37 = fmul reassoc nsz arcp contract afn <4 x float> %36, %30
  %38 = fadd reassoc nsz arcp contract afn <4 x float> %37, <float 0x3FF7B2DBA0000000, float 0x3FF7B2DBA0000000, float 0x3FF7B2DBA0000000, float 0x3FF7B2DBA0000000>
  %39 = fmul reassoc nsz arcp contract afn <4 x float> %38, %30
  %40 = fadd reassoc nsz arcp contract afn <4 x float> %39, <float 0xC0042A7EC0000000, float 0xC0042A7EC0000000, float 0xC0042A7EC0000000, float 0xC0042A7EC0000000>
  %41 = fmul reassoc nsz arcp contract afn <4 x float> %40, %30
  %42 = fadd reassoc nsz arcp contract afn <4 x float> %41, <float 0x40071B2D80000000, float 0x40071B2D80000000, float 0x40071B2D80000000, float 0x40071B2D80000000>
  %43 = fadd reassoc nsz arcp contract afn <4 x float> %30, <float -1.000000e+00, float -1.000000e+00, float -1.000000e+00, float -1.000000e+00>
  %44 = fmul reassoc nsz arcp contract afn <4 x float> %42, %43
  %45 = fadd reassoc nsz arcp contract afn <4 x float> %44, %34
  %46 = fmul reassoc nsz arcp contract afn <4 x float> %45, <float 0x3FDAAAAAA0000000, float 0x3FDAAAAAA0000000, float 0x3FDAAAAAA0000000, float 0x3FDAAAAAA0000000>
  %47 = tail call reassoc nsz arcp contract afn <4 x float> @llvm.x86.sse.min.ps(<4 x float> %46, <4 x float> <float 1.290000e+02, float 1.290000e+02, float 1.290000e+02, float 1.290000e+02>)
  %48 = tail call reassoc nsz arcp contract afn <4 x float> @llvm.x86.sse.max.ps(<4 x float> %47, <4 x float> <float 0xC05FBFFFE0000000, float 0xC05FBFFFE0000000, float 0xC05FBFFFE0000000, float 0xC05FBFFFE0000000>)
  %49 = fadd reassoc nsz arcp contract afn <4 x float> %48, <float -5.000000e-01, float -5.000000e-01, float -5.000000e-01, float -5.000000e-01>
  %50 = tail call <4 x i32> @llvm.x86.sse2.cvtps2dq(<4 x float> %49)
  %51 = sitofp <4 x i32> %50 to <4 x float>
  %52 = fcmp reassoc nsz arcp contract afn ugt float %12, 0x3F69A5C380000000
  br i1 %52, label %55, label %53

53:                                               ; preds = %2
  %54 = fmul reassoc nsz arcp contract afn float %12, 0x4029D70A40000000
  br label %74

55:                                               ; preds = %2
  %56 = extractelement <4 x float> %51, i64 0
  %57 = fsub reassoc nsz arcp contract afn <4 x float> %48, %51
  %58 = extractelement <4 x float> %57, i64 0
  %59 = fmul reassoc nsz arcp contract afn float %58, 0x3F8BB7CD20000000
  %60 = fadd reassoc nsz arcp contract afn float %59, 0x3FAAA13F20000000
  %61 = fmul reassoc nsz arcp contract afn float %60, %58
  %62 = fadd reassoc nsz arcp contract afn float %61, 0x3FCEE798A0000000
  %63 = fmul reassoc nsz arcp contract afn float %62, %58
  %64 = fadd reassoc nsz arcp contract afn float %63, 0x3FE62D1660000000
  %65 = fmul reassoc nsz arcp contract afn float %64, %58
  %66 = fadd reassoc nsz arcp contract afn float %65, 0x3FF00002C0000000
  %67 = fptosi float %56 to i32
  %68 = shl i32 %67, 23
  %69 = add i32 %68, 1065353216
  %70 = bitcast i32 %69 to float
  %71 = fmul reassoc nsz arcp contract afn float %66, %70
  %72 = fmul reassoc nsz arcp contract afn float %71, 0x3FF0E147A0000000
  %73 = fadd reassoc nsz arcp contract afn float %72, 0xBFAC28F5C0000000
  br label %74

74:                                               ; preds = %55, %53
  %75 = phi reassoc nsz arcp contract afn float [ %54, %53 ], [ %73, %55 ]
  %76 = extractelement <4 x float> %51, i64 3
  %77 = fsub reassoc nsz arcp contract afn <4 x float> %48, %51
  %78 = extractelement <4 x float> %77, i64 3
  %79 = fmul reassoc nsz arcp contract afn float %78, 0x3F8BB7CD20000000
  %80 = fadd reassoc nsz arcp contract afn float %79, 0x3FAAA13F20000000
  %81 = fmul reassoc nsz arcp contract afn float %80, %78
  %82 = fadd reassoc nsz arcp contract afn float %81, 0x3FCEE798A0000000
  %83 = fmul reassoc nsz arcp contract afn float %82, %78
  %84 = fadd reassoc nsz arcp contract afn float %83, 0x3FE62D1660000000
  %85 = fmul reassoc nsz arcp contract afn float %84, %78
  %86 = fadd reassoc nsz arcp contract afn float %85, 0x3FF00002C0000000
  %87 = fptosi float %76 to i32
  %88 = shl i32 %87, 23
  %89 = add i32 %88, 1065353216
  %90 = bitcast i32 %89 to float
  %91 = fmul reassoc nsz arcp contract afn float %86, %90
  %92 = fmul reassoc nsz arcp contract afn float %22, 0.000000e+00
  %93 = fmul reassoc nsz arcp contract afn <2 x float> %20, <float 0x4029D70A40000000, float 0x4029D70A40000000>
  store float %75, ptr %1, align 4, !tbaa !12
  %94 = fcmp reassoc nsz arcp contract afn ugt <2 x float> %20, <float 0x3F69A5C380000000, float 0x3F69A5C380000000>
  %95 = getelementptr inbounds i8, ptr %1, i64 4
  %96 = shufflevector <4 x float> %51, <4 x float> poison, <2 x i32> <i32 1, i32 2>
  %97 = fsub reassoc nsz arcp contract afn <4 x float> %48, %51
  %98 = shufflevector <4 x float> %97, <4 x float> poison, <2 x i32> <i32 1, i32 2>
  %99 = fmul reassoc nsz arcp contract afn <2 x float> %98, <float 0x3F8BB7CD20000000, float 0x3F8BB7CD20000000>
  %100 = fadd reassoc nsz arcp contract afn <2 x float> %99, <float 0x3FAAA13F20000000, float 0x3FAAA13F20000000>
  %101 = fmul reassoc nsz arcp contract afn <2 x float> %100, %98
  %102 = fadd reassoc nsz arcp contract afn <2 x float> %101, <float 0x3FCEE798A0000000, float 0x3FCEE798A0000000>
  %103 = fmul reassoc nsz arcp contract afn <2 x float> %102, %98
  %104 = fadd reassoc nsz arcp contract afn <2 x float> %103, <float 0x3FE62D1660000000, float 0x3FE62D1660000000>
  %105 = fmul reassoc nsz arcp contract afn <2 x float> %104, %98
  %106 = fadd reassoc nsz arcp contract afn <2 x float> %105, <float 0x3FF00002C0000000, float 0x3FF00002C0000000>
  %107 = fptosi <2 x float> %96 to <2 x i32>
  %108 = shl <2 x i32> %107, <i32 23, i32 23>
  %109 = add <2 x i32> %108, <i32 1065353216, i32 1065353216>
  %110 = bitcast <2 x i32> %109 to <2 x float>
  %111 = fmul reassoc nsz arcp contract afn <2 x float> %106, %110
  %112 = fmul reassoc nsz arcp contract afn <2 x float> %111, <float 0x3FF0E147A0000000, float 0x3FF0E147A0000000>
  %113 = fadd reassoc nsz arcp contract afn <2 x float> %112, <float 0xBFAC28F5C0000000, float 0xBFAC28F5C0000000>
  %114 = select <2 x i1> %94, <2 x float> %113, <2 x float> %93
  store <2 x float> %114, ptr %95, align 4, !tbaa !12
  %115 = fcmp reassoc nsz arcp contract afn ugt float %23, 0x3F69A5C380000000
  %116 = fmul reassoc nsz arcp contract afn float %91, 0x3FF0E147A0000000
  %117 = fadd reassoc nsz arcp contract afn float %116, 0xBFAC28F5C0000000
  %118 = select reassoc nsz arcp contract afn i1 %115, float %117, float %92
  %119 = getelementptr inbounds i8, ptr %1, i64 12
  store float %118, ptr %119, align 4, !tbaa !12
  ret void
}

; Function Attrs: nounwind uwtable
define internal noundef i32 @_target_color_draw(ptr noundef %0, ptr noundef %1, ptr nocapture noundef readonly %2) #1 {
  %4 = alloca %struct._cairo_rectangle_int, align 4
  %5 = alloca [4 x float], align 16
  %6 = alloca [4 x float], align 16
  %7 = getelementptr inbounds i8, ptr %2, i64 704
  %8 = load ptr, ptr %7, align 16, !tbaa !50
  call void @llvm.lifetime.start.p0(i64 16, ptr nonnull %4) #21
  call void @gtk_widget_get_allocation(ptr noundef %0, ptr noundef nonnull %4) #21
  %9 = getelementptr inbounds i8, ptr %4, i64 8
  %10 = load i32, ptr %9, align 4, !tbaa !159
  %11 = getelementptr inbounds i8, ptr %4, i64 12
  %12 = load i32, ptr %11, align 4, !tbaa !160
  %13 = sitofp i32 %10 to double
  %14 = load ptr, ptr getelementptr inbounds (%struct.darktable_t, ptr @darktable, i64 0, i32 14), align 8, !tbaa !130
  %15 = getelementptr inbounds i8, ptr %14, i64 1456
  %16 = load double, ptr %15, align 8, !tbaa !161
  %17 = fmul reassoc nsz arcp contract afn double %16, %13
  %18 = fptosi double %17 to i32
  %19 = sitofp i32 %12 to double
  %20 = fmul reassoc nsz arcp contract afn double %16, %19
  %21 = fptosi double %20 to i32
  %22 = call ptr @cairo_image_surface_create(i32 noundef 0, i32 noundef %18, i32 noundef %21) #21
  %23 = load ptr, ptr getelementptr inbounds (%struct.darktable_t, ptr @darktable, i64 0, i32 14), align 8, !tbaa !130
  %24 = getelementptr inbounds i8, ptr %23, i64 1456
  %25 = load double, ptr %24, align 8, !tbaa !161
  call void @cairo_surface_set_device_scale(ptr noundef %22, double noundef %25, double noundef %25) #21
  %26 = call ptr @cairo_create(ptr noundef %22) #21
  %27 = load ptr, ptr getelementptr inbounds (%struct.darktable_t, ptr @darktable, i64 0, i32 14), align 8, !tbaa !130
  %28 = getelementptr inbounds i8, ptr %27, i64 1448
  %29 = load double, ptr %28, align 8, !tbaa !150
  %30 = fmul reassoc nsz arcp contract afn double %29, 3.000000e+00
  %31 = fptrunc double %30 to float
  %32 = fadd reassoc nsz arcp contract afn double %13, -8.000000e+00
  %33 = fptosi double %32 to i32
  %34 = fmul reassoc nsz arcp contract afn float %31, 2.000000e+00
  %35 = sitofp i32 %12 to float
  %36 = fsub reassoc nsz arcp contract afn float %35, %34
  %37 = fptosi float %36 to i32
  call void @llvm.lifetime.start.p0(i64 16, ptr nonnull %5) #21
  call void @llvm.memset.p0.i64(ptr noundef nonnull align 16 dereferenceable(16) %5, i8 0, i64 16, i1 false)
  call void @llvm.lifetime.start.p0(i64 16, ptr nonnull %6) #21
  %38 = getelementptr inbounds i8, ptr %8, i64 112
  %39 = load ptr, ptr %38, align 16, !tbaa !110
  %40 = call reassoc nsz arcp contract afn float @dt_bauhaus_slider_get(ptr noundef %39) #21
  %41 = fmul reassoc nsz arcp contract afn float %40, 0x3F81A7B960000000
  %42 = getelementptr inbounds i8, ptr %6, i64 4
  %43 = getelementptr inbounds i8, ptr %6, i64 8
  %44 = fadd reassoc nsz arcp contract afn float %41, 0x3FC1A7B960000000
  %45 = insertelement <2 x float> poison, float %44, i64 0
  %46 = shufflevector <2 x float> %45, <2 x float> poison, <2 x i32> zeroinitializer
  %47 = fmul reassoc nsz arcp contract afn <2 x float> %46, <float 0x3FC07004C0000000, float 0.000000e+00>
  %48 = insertelement <2 x float> %47, float %44, i64 0
  %49 = fcmp reassoc nsz arcp contract afn ogt <2 x float> %48, <float 0x3FCA7B9620000000, float 0x3FCA7B9620000000>
  %50 = fmul reassoc nsz arcp contract afn <2 x float> %48, %48
  %51 = fmul reassoc nsz arcp contract afn <2 x float> %50, %48
  %52 = fadd reassoc nsz arcp contract afn <2 x float> %47, <float 0xBF922354C0000000, float 0xBF922354C0000000>
  %53 = select <2 x i1> %49, <2 x float> %51, <2 x float> %52
  %54 = extractelement <2 x float> %53, i64 0
  %55 = fmul reassoc nsz arcp contract afn float %54, 0x3FEEDABA00000000
  store float %55, ptr %6, align 16, !tbaa !12
  store float %54, ptr %42, align 4, !tbaa !12
  %56 = fmul reassoc nsz arcp contract afn <2 x float> %53, <float 0x3FEA6594A0000000, float 0.000000e+00>
  store <2 x float> %56, ptr %43, align 8, !tbaa !12
  call fastcc void @dt_XYZ_to_sRGB(ptr noundef nonnull %6, ptr noundef nonnull %5)
  %57 = load float, ptr %5, align 16, !tbaa !12
  %58 = fpext float %57 to double
  %59 = getelementptr inbounds i8, ptr %5, i64 4
  %60 = load float, ptr %59, align 4, !tbaa !12
  %61 = fpext float %60 to double
  %62 = getelementptr inbounds i8, ptr %5, i64 8
  %63 = load float, ptr %62, align 8, !tbaa !12
  %64 = fpext float %63 to double
  call void @cairo_set_source_rgb(ptr noundef %26, double noundef %58, double noundef %61, double noundef %64) #21
  %65 = fpext float %31 to double
  %66 = sitofp i32 %33 to double
  %67 = sitofp i32 %37 to double
  call void @cairo_rectangle(ptr noundef %26, double noundef 4.000000e+00, double noundef %65, double noundef %66, double noundef %67) #21
  call void @cairo_fill(ptr noundef %26) #21
  call void @cairo_stroke(ptr noundef %26) #21
  call void @cairo_destroy(ptr noundef %26) #21
  call void @cairo_set_source_surface(ptr noundef %1, ptr noundef %22, double noundef 0.000000e+00, double noundef 0.000000e+00) #21
  call void @cairo_paint(ptr noundef %1) #21
  call void @cairo_surface_destroy(ptr noundef %22) #21
  call void @llvm.lifetime.end.p0(i64 16, ptr nonnull %6) #21
  call void @llvm.lifetime.end.p0(i64 16, ptr nonnull %5) #21
  call void @llvm.lifetime.end.p0(i64 16, ptr nonnull %4) #21
  ret i32 1
}