; Function Attrs: nounwind uwtable
define internal noundef i32 @_target_color_draw(ptr noundef %0, ptr noundef %1, ptr nocapture noundef readonly %2) #12 {
  %4 = alloca %struct._cairo_rectangle_int, align 4
  %5 = getelementptr inbounds i8, ptr %2, i64 704
  %6 = load ptr, ptr %5, align 16, !tbaa !50
  call void @llvm.lifetime.start.p0(i64 16, ptr nonnull %4) #21
  call void @gtk_widget_get_allocation(ptr noundef %0, ptr noundef nonnull %4) #21
  %7 = getelementptr inbounds i8, ptr %4, i64 8
  %8 = load i32, ptr %7, align 4, !tbaa !158
  %9 = getelementptr inbounds i8, ptr %4, i64 12
  %10 = load i32, ptr %9, align 4, !tbaa !159
  %11 = sitofp i32 %8 to double
  %12 = load ptr, ptr getelementptr inbounds (%struct.darktable_t, ptr @darktable, i64 0, i32 14), align 8, !tbaa !129
  %13 = getelementptr inbounds i8, ptr %12, i64 1456
  %14 = load double, ptr %13, align 8, !tbaa !160
  %15 = fmul reassoc nsz arcp contract afn double %14, %11
  %16 = fptosi double %15 to i32
  %17 = sitofp i32 %10 to double
  %18 = fmul reassoc nsz arcp contract afn double %14, %17
  %19 = fptosi double %18 to i32
  %20 = call ptr @cairo_image_surface_create(i32 noundef 0, i32 noundef %16, i32 noundef %19) #21
  %21 = load ptr, ptr getelementptr inbounds (%struct.darktable_t, ptr @darktable, i64 0, i32 14), align 8, !tbaa !129
  %22 = getelementptr inbounds i8, ptr %21, i64 1456
  %23 = load double, ptr %22, align 8, !tbaa !160
  call void @cairo_surface_set_device_scale(ptr noundef %20, double noundef %23, double noundef %23) #21
  %24 = call ptr @cairo_create(ptr noundef %20) #21
  %25 = load ptr, ptr getelementptr inbounds (%struct.darktable_t, ptr @darktable, i64 0, i32 14), align 8, !tbaa !129
  %26 = getelementptr inbounds i8, ptr %25, i64 1448
  %27 = load double, ptr %26, align 8, !tbaa !149
  %28 = getelementptr inbounds i8, ptr %6, i64 112
  %29 = load ptr, ptr %28, align 16, !tbaa !110
  %30 = call reassoc nsz arcp contract afn float @dt_bauhaus_slider_get(ptr noundef %29) #21
  %31 = fmul reassoc nsz arcp contract afn float %30, 0x3F81A7B960000000
  %32 = fadd reassoc nsz arcp contract afn float %31, 0x3FC1A7B960000000
  %33 = insertelement <2 x float> poison, float %32, i64 0
  %34 = shufflevector <2 x float> %33, <2 x float> poison, <2 x i32> zeroinitializer
  %35 = fmul reassoc nsz arcp contract afn <2 x float> %34, <float 0x3FC07004C0000000, float 0.000000e+00>
  %36 = insertelement <2 x float> %35, float %32, i64 0
  %37 = fcmp reassoc nsz arcp contract afn ogt <2 x float> %36, <float 0x3FCA7B9620000000, float 0x3FCA7B9620000000>
  %38 = fmul reassoc nsz arcp contract afn <2 x float> %36, %36
  %39 = fmul reassoc nsz arcp contract afn <2 x float> %38, %36
  %40 = fadd reassoc nsz arcp contract afn <2 x float> %35, <float 0xBF922354C0000000, float poison>
  %41 = select <2 x i1> %37, <2 x float> %39, <2 x float> %40
  %42 = extractelement <2 x float> %41, i64 0
  %43 = fmul reassoc nsz arcp contract afn float %42, 0x3FEEDABA00000000
  %.sroa.0.0.vec.insert = insertelement <2 x float> poison, float %43, i64 0
  %.sroa.0.4.vec.insert = shufflevector <2 x float> %.sroa.0.0.vec.insert, <2 x float> %41, <2 x i32> <i32 0, i32 2>
  %.sroa.5.8.vec.extract = fmul reassoc nsz arcp contract afn float %42, 0x3FEA6594A0000000
  %44 = fmul reassoc nsz arcp contract afn float %42, 0x3FF0005DC0000000
  %45 = fmul reassoc nsz arcp contract afn <2 x float> %.sroa.0.4.vec.insert, <float 0x3FB26B01E0000000, float 0x3FFEA88400000000>
  %46 = shufflevector <2 x float> %45, <2 x float> poison, <2 x i32> <i32 1, i32 0>
  %47 = fmul reassoc nsz arcp contract afn <2 x float> %.sroa.0.4.vec.insert, <float 0xBFEF521220000000, float 0xBFCD4F9720000000>
  %48 = insertelement <2 x float> poison, float %.sroa.5.8.vec.extract, i64 0
  %49 = shufflevector <2 x float> %48, <2 x float> poison, <2 x i32> zeroinitializer
  %50 = fmul reassoc nsz arcp contract afn <2 x float> %49, <float 0x3FA120E200000000, float 0x3FF67BDFC0000000>
  %51 = fadd reassoc nsz arcp contract afn <2 x float> %50, %47
  %52 = fadd reassoc nsz arcp contract afn <2 x float> %51, %46
  %53 = fmul reassoc nsz arcp contract afn float %42, 0.000000e+00
  %54 = shufflevector <2 x float> %52, <2 x float> poison, <4 x i32> <i32 poison, i32 0, i32 1, i32 poison>
  %55 = insertelement <4 x float> %54, float %44, i64 0
  %56 = insertelement <4 x float> %55, float %53, i64 3
  %57 = bitcast <4 x float> %56 to <4 x i32>
  %58 = and <4 x i32> %57, <i32 8388607, i32 8388607, i32 8388607, i32 8388607>
  %59 = or disjoint <4 x i32> %58, <i32 1065353216, i32 1065353216, i32 1065353216, i32 1065353216>
  %60 = bitcast <4 x i32> %59 to <4 x float>
  %61 = lshr <4 x i32> %57, <i32 23, i32 23, i32 23, i32 23>
  %62 = and <4 x i32> %61, <i32 255, i32 255, i32 255, i32 255>
  %63 = add nsw <4 x i32> %62, <i32 -127, i32 -127, i32 -127, i32 -127>
  %64 = sitofp <4 x i32> %63 to <4 x float>
  %65 = fmul reassoc nsz arcp contract afn <4 x float> %60, <float 0x3FAE8AA5E0000000, float 0x3FAE8AA5E0000000, float 0x3FAE8AA5E0000000, float 0x3FAE8AA5E0000000>
  %66 = fadd reassoc nsz arcp contract afn <4 x float> %65, <float 0xBFDDCE72E0000000, float 0xBFDDCE72E0000000, float 0xBFDDCE72E0000000, float 0xBFDDCE72E0000000>
  %67 = fmul reassoc nsz arcp contract afn <4 x float> %66, %60
  %68 = fadd reassoc nsz arcp contract afn <4 x float> %67, <float 0x3FF7B2DBA0000000, float 0x3FF7B2DBA0000000, float 0x3FF7B2DBA0000000, float 0x3FF7B2DBA0000000>
  %69 = fmul reassoc nsz arcp contract afn <4 x float> %68, %60
  %70 = fadd reassoc nsz arcp contract afn <4 x float> %69, <float 0xC0042A7EC0000000, float 0xC0042A7EC0000000, float 0xC0042A7EC0000000, float 0xC0042A7EC0000000>
  %71 = fmul reassoc nsz arcp contract afn <4 x float> %70, %60
  %72 = fadd reassoc nsz arcp contract afn <4 x float> %71, <float 0x40071B2D80000000, float 0x40071B2D80000000, float 0x40071B2D80000000, float 0x40071B2D80000000>
  %73 = fadd reassoc nsz arcp contract afn <4 x float> %60, <float -1.000000e+00, float -1.000000e+00, float -1.000000e+00, float -1.000000e+00>
  %74 = fmul reassoc nsz arcp contract afn <4 x float> %72, %73
  %75 = fadd reassoc nsz arcp contract afn <4 x float> %74, %64
  %76 = fmul reassoc nsz arcp contract afn <4 x float> %75, <float 0x3FDAAAAAA0000000, float 0x3FDAAAAAA0000000, float 0x3FDAAAAAA0000000, float 0x3FDAAAAAA0000000>
  %77 = call reassoc nsz arcp contract afn <4 x float> @llvm.x86.sse.min.ps(<4 x float> %76, <4 x float> <float 1.290000e+02, float 1.290000e+02, float 1.290000e+02, float 1.290000e+02>)
  %78 = call reassoc nsz arcp contract afn <4 x float> @llvm.x86.sse.max.ps(<4 x float> %77, <4 x float> <float 0xC05FBFFFE0000000, float 0xC05FBFFFE0000000, float 0xC05FBFFFE0000000, float 0xC05FBFFFE0000000>)
  %79 = fadd reassoc nsz arcp contract afn <4 x float> %78, <float -5.000000e-01, float -5.000000e-01, float -5.000000e-01, float -5.000000e-01>
  %80 = call <4 x i32> @llvm.x86.sse2.cvtps2dq(<4 x float> %79)
  %81 = sitofp <4 x i32> %80 to <4 x float>
  %82 = fcmp reassoc nsz arcp contract afn ugt float %44, 0x3F69A5C380000000
  %83 = fsub reassoc nsz arcp contract afn <4 x float> %78, %81
  br i1 %82, label %86, label %84

84:                                               ; preds = %3
  %85 = fmul reassoc nsz arcp contract afn float %42, 0x4029D7A1A0000000
  br label %dt_XYZ_to_sRGB.exit

86:                                               ; preds = %3
  %87 = extractelement <4 x float> %81, i64 0
  %88 = extractelement <4 x float> %83, i64 0
  %89 = fmul reassoc nsz arcp contract afn float %88, 0x3F8BB7CD20000000
  %90 = fadd reassoc nsz arcp contract afn float %89, 0x3FAAA13F20000000
  %91 = fmul reassoc nsz arcp contract afn float %90, %88
  %92 = fadd reassoc nsz arcp contract afn float %91, 0x3FCEE798A0000000
  %93 = fmul reassoc nsz arcp contract afn float %92, %88
  %94 = fadd reassoc nsz arcp contract afn float %93, 0x3FE62D1660000000
  %95 = fmul reassoc nsz arcp contract afn float %94, %88
  %96 = fadd reassoc nsz arcp contract afn float %95, 0x3FF00002C0000000
  %97 = fptosi float %87 to i32
  %98 = shl i32 %97, 23
  %99 = add i32 %98, 1065353216
  %100 = bitcast i32 %99 to float
  %101 = fmul reassoc nsz arcp contract afn float %100, 0x3FF0E147A0000000
  %102 = fmul reassoc nsz arcp contract afn float %101, %96
  %103 = fadd reassoc nsz arcp contract afn float %102, 0xBFAC28F5C0000000
  br label %dt_XYZ_to_sRGB.exit

dt_XYZ_to_sRGB.exit:                              ; preds = %84, %86
  %104 = phi reassoc nsz arcp contract afn float [ %103, %86 ], [ %85, %84 ]
  %105 = sitofp i32 %10 to float
  %106 = fmul reassoc nsz arcp contract afn double %27, 3.000000e+00
  %107 = fptrunc double %106 to float
  %108 = fmul reassoc nsz arcp contract afn float %107, 2.000000e+00
  %109 = fsub reassoc nsz arcp contract afn float %105, %108
  %110 = fptosi float %109 to i32
  %111 = fadd reassoc nsz arcp contract afn double %11, -8.000000e+00
  %112 = fptosi double %111 to i32
  %113 = fmul reassoc nsz arcp contract afn <2 x float> %52, <float 0x4029D70A40000000, float 0x4029D70A40000000>
  %114 = fcmp reassoc nsz arcp contract afn ugt <2 x float> %52, <float 0x3F69A5C380000000, float 0x3F69A5C380000000>
  %115 = shufflevector <4 x float> %81, <4 x float> poison, <2 x i32> <i32 1, i32 2>
  %116 = shufflevector <4 x float> %83, <4 x float> poison, <2 x i32> <i32 1, i32 2>
  %117 = fmul reassoc nsz arcp contract afn <2 x float> %116, <float 0x3F8BB7CD20000000, float 0x3F8BB7CD20000000>
  %118 = fadd reassoc nsz arcp contract afn <2 x float> %117, <float 0x3FAAA13F20000000, float 0x3FAAA13F20000000>
  %119 = fmul reassoc nsz arcp contract afn <2 x float> %118, %116
  %120 = fadd reassoc nsz arcp contract afn <2 x float> %119, <float 0x3FCEE798A0000000, float 0x3FCEE798A0000000>
  %121 = fmul reassoc nsz arcp contract afn <2 x float> %120, %116
  %122 = fadd reassoc nsz arcp contract afn <2 x float> %121, <float 0x3FE62D1660000000, float 0x3FE62D1660000000>
  %123 = fmul reassoc nsz arcp contract afn <2 x float> %122, %116
  %124 = fadd reassoc nsz arcp contract afn <2 x float> %123, <float 0x3FF00002C0000000, float 0x3FF00002C0000000>
  %125 = fptosi <2 x float> %115 to <2 x i32>
  %126 = shl <2 x i32> %125, <i32 23, i32 23>
  %127 = add <2 x i32> %126, <i32 1065353216, i32 1065353216>
  %128 = bitcast <2 x i32> %127 to <2 x float>
  %129 = fmul reassoc nsz arcp contract afn <2 x float> %128, <float 0x3FF0E147A0000000, float 0x3FF0E147A0000000>
  %130 = fmul reassoc nsz arcp contract afn <2 x float> %129, %124
  %131 = fadd reassoc nsz arcp contract afn <2 x float> %130, <float 0xBFAC28F5C0000000, float 0xBFAC28F5C0000000>
  %132 = select <2 x i1> %114, <2 x float> %131, <2 x float> %113
  %133 = fpext float %104 to double
  %.sroa.54.4.vec.extract = extractelement <2 x float> %132, i64 0
  %134 = fpext float %.sroa.54.4.vec.extract to double
  %.sroa.54.8.vec.extract = extractelement <2 x float> %132, i64 1
  %135 = fpext float %.sroa.54.8.vec.extract to double
  call void @cairo_set_source_rgb(ptr noundef %24, double noundef %133, double noundef %134, double noundef %135) #21
  %136 = fpext float %107 to double
  %137 = sitofp i32 %112 to double
  %138 = sitofp i32 %110 to double
  call void @cairo_rectangle(ptr noundef %24, double noundef 4.000000e+00, double noundef %136, double noundef %137, double noundef %138) #21
  call void @cairo_fill(ptr noundef %24) #21
  call void @cairo_stroke(ptr noundef %24) #21
  call void @cairo_destroy(ptr noundef %24) #21
  call void @cairo_set_source_surface(ptr noundef %1, ptr noundef %20, double noundef 0.000000e+00, double noundef 0.000000e+00) #21
  call void @cairo_paint(ptr noundef %1) #21
  call void @cairo_surface_destroy(ptr noundef %20) #21
  call void @llvm.lifetime.end.p0(i64 16, ptr nonnull %4) #21
  ret i32 1
}